; Function Attrs: nounwind uwtable
define hidden void @zim_DOMElement_setIdAttributeNS(ptr nocapture noundef readonly %0, ptr nocapture noundef writeonly %1) local_unnamed_addr #0 {
  %3 = alloca i64, align 8
  %4 = alloca i64, align 8
  %5 = alloca ptr, align 8
  %6 = alloca ptr, align 8
  %7 = alloca i8, align 1
  %8 = getelementptr inbounds i8, ptr %0, i64 44
  %9 = load i32, ptr %8, align 4
  %10 = call i32 (i32, ptr, ...) @zend_parse_parameters(i32 noundef %9, ptr noundef nonnull @.str.16, ptr noundef nonnull %5, ptr noundef nonnull %3, ptr noundef nonnull %6, ptr noundef nonnull %4, ptr noundef nonnull %7) #8
  %11 = icmp eq i32 %10, -1
  br i1 %11, label %12, label %15

12:                                               ; preds = %2
  %13 = load ptr, ptr getelementptr inbounds (%struct._zend_executor_globals, ptr @executor_globals, i64 0, i32 50), align 8
  %14 = icmp ne ptr %13, null
  call void @llvm.assume(i1 %14)
  br label %64

15:                                               ; preds = %2
  %16 = getelementptr inbounds i8, ptr %0, i64 32
  %17 = load ptr, ptr %16, align 8
  %18 = getelementptr inbounds i8, ptr %17, i64 -24
  %19 = load ptr, ptr %18, align 8
  %20 = icmp eq ptr %19, null
  br i1 %20, label %21, label %29

21:                                               ; preds = %15
  %22 = getelementptr inbounds i8, ptr %17, i64 16
  %23 = load ptr, ptr %22, align 8
  %24 = getelementptr inbounds i8, ptr %23, i64 8
  %25 = load ptr, ptr %24, align 8
  %26 = getelementptr inbounds i8, ptr %25, i64 24
  call void (ptr, ptr, ...) @zend_throw_error(ptr noundef null, ptr noundef nonnull @.str.5, ptr noundef nonnull %26) #8
  %27 = load ptr, ptr getelementptr inbounds (%struct._zend_executor_globals, ptr @executor_globals, i64 0, i32 50), align 8
  %28 = icmp ne ptr %27, null
  call void @llvm.assume(i1 %28)
  br label %64

29:                                               ; preds = %15
  %30 = load ptr, ptr %19, align 8
  %31 = load ptr, ptr %6, align 8
  %32 = load ptr, ptr %5, align 8
  %33 = call ptr @xmlHasNsProp(ptr noundef %30, ptr noundef %31, ptr noundef %32) #8
  %34 = icmp eq ptr %33, null
  br i1 %34, label %39, label %35

35:                                               ; preds = %29
  %36 = getelementptr inbounds i8, ptr %33, i64 8
  %37 = load i32, ptr %36, align 8
  %38 = icmp eq i32 %37, 16
  br i1 %38, label %39, label %43

39:                                               ; preds = %35, %29
  %40 = getelementptr inbounds i8, ptr %17, i64 -16
  %41 = load ptr, ptr %40, align 8
  %42 = call i32 @dom_get_strict_error(ptr noundef %41) #8
  call void @php_dom_throw_error(i32 noundef 8, i32 noundef %42) #8
  br label %php_set_attribute_id.exit

43:                                               ; preds = %35
  %44 = load i8, ptr %7, align 1
  %45 = and i8 %44, 1
  %.not = icmp eq i8 %45, 0
  %46 = getelementptr inbounds i8, ptr %33, i64 80
  %47 = load i32, ptr %46, align 8
  %.not.i = icmp eq i32 %47, 2
  br i1 %.not, label %.critedge.i, label %48

48:                                               ; preds = %43
  br i1 %.not.i, label %php_set_attribute_id.exit, label %49

49:                                               ; preds = %48
  %50 = getelementptr inbounds i8, ptr %33, i64 64
  %51 = load ptr, ptr %50, align 8
  %52 = getelementptr inbounds i8, ptr %33, i64 24
  %53 = load ptr, ptr %52, align 8
  %54 = call ptr @xmlNodeListGetString(ptr noundef %51, ptr noundef %53, i32 noundef 1) #8
  %.not13.i = icmp eq ptr %54, null
  br i1 %.not13.i, label %php_set_attribute_id.exit, label %55

55:                                               ; preds = %49
  %56 = load ptr, ptr %50, align 8
  %57 = call ptr @xmlAddID(ptr noundef null, ptr noundef %56, ptr noundef nonnull %54, ptr noundef nonnull %33) #8
  %58 = load ptr, ptr @xmlFree, align 8
  call void %58(ptr noundef nonnull %54) #8
  br label %php_set_attribute_id.exit

.critedge.i:                                      ; preds = %43
  br i1 %.not.i, label %59, label %php_set_attribute_id.exit

59:                                               ; preds = %.critedge.i
  %60 = getelementptr inbounds i8, ptr %33, i64 64
  %61 = load ptr, ptr %60, align 8
  %62 = call i32 @xmlRemoveID(ptr noundef %61, ptr noundef nonnull %33) #8
  store i32 0, ptr %46, align 8
  br label %php_set_attribute_id.exit

php_set_attribute_id.exit:                        ; preds = %59, %.critedge.i, %55, %49, %48, %39
  %63 = getelementptr inbounds i8, ptr %1, i64 8
  store i32 1, ptr %63, align 8
  br label %64

64:                                               ; preds = %php_set_attribute_id.exit, %21, %12
  ret void
}